; Function Attrs: mustprogress uwtable
define i32 @uregex_replaceFirst_75(ptr noundef %regexp2, ptr noundef %replacementText, i32 noundef %replacementLength, ptr noundef %destBuf, i32 noundef %destCapacity, ptr noundef %status) local_unnamed_addr #5 {
entry:
  %destBuf.addr = alloca ptr, align 8
  %destCapacity.addr = alloca i32, align 4
  store ptr %destBuf, ptr %destBuf.addr, align 8
  store i32 %destCapacity, ptr %destCapacity.addr, align 4
  %0 = load i32, ptr %status, align 4
  %cmp.i.i = icmp slt i32 %0, 1
  br i1 %cmp.i.i, label %if.end.i, label %return

if.end.i:                                         ; preds = %entry
  %cmp.i = icmp eq ptr %regexp2, null
  br i1 %cmp.i, label %return.sink.split.i, label %lor.lhs.false.i

lor.lhs.false.i:                                  ; preds = %if.end.i
  %1 = load i32, ptr %regexp2, align 8
  %cmp1.not.i = icmp eq i32 %1, 1919252592
  br i1 %cmp1.not.i, label %if.end3.i, label %return.sink.split.i

if.end3.i:                                        ; preds = %lor.lhs.false.i
  %fText.i = getelementptr inbounds i8, ptr %regexp2, i64 48
  %2 = load ptr, ptr %fText.i, align 8
  %cmp5.i = icmp eq ptr %2, null
  br i1 %cmp5.i, label %land.lhs.true6.i, label %if.end

land.lhs.true6.i:                                 ; preds = %if.end3.i
  %fOwnsText.i = getelementptr inbounds i8, ptr %regexp2, i64 60
  %3 = load i8, ptr %fOwnsText.i, align 4
  %tobool7.not.i = icmp eq i8 %3, 0
  br i1 %tobool7.not.i, label %return.sink.split.i, label %if.end

return.sink.split.i:                              ; preds = %land.lhs.true6.i, %lor.lhs.false.i, %if.end.i
  %.sink.i = phi i32 [ 1, %lor.lhs.false.i ], [ 1, %if.end.i ], [ 66306, %land.lhs.true6.i ]
  store i32 %.sink.i, ptr %status, align 4
  br label %return

if.end:                                           ; preds = %land.lhs.true6.i, %if.end3.i
  %cmp1 = icmp eq ptr %replacementText, null
  %cmp2 = icmp slt i32 %replacementLength, -1
  %or.cond = or i1 %cmp1, %cmp2
  br i1 %or.cond, label %if.then8, label %lor.lhs.false3

lor.lhs.false3:                                   ; preds = %if.end
  %cmp4 = icmp eq ptr %destBuf, null
  %cmp5 = icmp sgt i32 %destCapacity, 0
  %or.cond1 = and i1 %cmp4, %cmp5
  %cmp7 = icmp slt i32 %destCapacity, 0
  %or.cond2 = or i1 %cmp7, %or.cond1
  br i1 %or.cond2, label %if.then8, label %if.end3.i.i.i

if.then8:                                         ; preds = %lor.lhs.false3, %if.end
  store i32 1, ptr %status, align 4
  br label %return

if.end3.i.i.i:                                    ; preds = %lor.lhs.false3
  br i1 %cmp5.i, label %land.lhs.true6.i.i.i, label %uregex_reset_75.exit

land.lhs.true6.i.i.i:                             ; preds = %if.end3.i.i.i
  %fOwnsText.i.i.i = getelementptr inbounds i8, ptr %regexp2, i64 60
  %4 = load i8, ptr %fOwnsText.i.i.i, align 4
  %tobool7.not.i.i.i = icmp eq i8 %4, 0
  br i1 %tobool7.not.i.i.i, label %return.sink.split.i.i.i, label %uregex_reset_75.exit

return.sink.split.i.i.i:                          ; preds = %land.lhs.true6.i.i.i
  store i32 66306, ptr %status, align 4
  br label %if.end13

uregex_reset_75.exit:                             ; preds = %if.end3.i.i.i, %land.lhs.true6.i.i.i
  %fMatcher.i.i = getelementptr inbounds i8, ptr %regexp2, i64 40
  %5 = load ptr, ptr %fMatcher.i.i, align 8
  %call1.i.i = tail call noundef nonnull align 8 dereferenceable(336) ptr @_ZN6icu_7512RegexMatcher5resetElR10UErrorCode(ptr noundef nonnull align 8 dereferenceable(336) %5, i64 noundef 0, ptr noundef nonnull align 4 dereferenceable(4) %status)
  %.pr = load i32, ptr %status, align 4
  %cmp.i.i.i.i15 = icmp slt i32 %.pr, 1
  br i1 %cmp.i.i.i.i15, label %lor.lhs.false.i.i.i18, label %if.end13

lor.lhs.false.i.i.i18:                            ; preds = %uregex_reset_75.exit
  %6 = load i32, ptr %regexp2, align 8
  %cmp1.not.i.i.i19 = icmp eq i32 %6, 1919252592
  br i1 %cmp1.not.i.i.i19, label %if.end3.i.i.i22, label %return.sink.split.i.i.i20

if.end3.i.i.i22:                                  ; preds = %lor.lhs.false.i.i.i18
  %7 = load ptr, ptr %fText.i, align 8
  %cmp5.i.i.i24 = icmp eq ptr %7, null
  br i1 %cmp5.i.i.i24, label %land.lhs.true6.i.i.i27, label %uregex_find_75.exit

land.lhs.true6.i.i.i27:                           ; preds = %if.end3.i.i.i22
  %fOwnsText.i.i.i28 = getelementptr inbounds i8, ptr %regexp2, i64 60
  %8 = load i8, ptr %fOwnsText.i.i.i28, align 4
  %tobool7.not.i.i.i29 = icmp eq i8 %8, 0
  br i1 %tobool7.not.i.i.i29, label %return.sink.split.i.i.i20, label %uregex_find_75.exit

return.sink.split.i.i.i20:                        ; preds = %land.lhs.true6.i.i.i27, %lor.lhs.false.i.i.i18
  %.sink.i.i.i21 = phi i32 [ 1, %lor.lhs.false.i.i.i18 ], [ 66306, %land.lhs.true6.i.i.i27 ]
  store i32 %.sink.i.i.i21, ptr %status, align 4
  br label %if.end13

uregex_find_75.exit:                              ; preds = %if.end3.i.i.i22, %land.lhs.true6.i.i.i27
  %9 = load ptr, ptr %fMatcher.i.i, align 8
  %call6.i.i = tail call noundef signext i8 @_ZN6icu_7512RegexMatcher4findElR10UErrorCode(ptr noundef nonnull align 8 dereferenceable(336) %9, i64 noundef 0, ptr noundef nonnull align 4 dereferenceable(4) %status)
  %tobool.not = icmp eq i8 %call6.i.i, 0
  br i1 %tobool.not, label %if.end13, label %if.then11

if.then11:                                        ; preds = %uregex_find_75.exit
  %call.i = call noundef i32 @_ZN6icu_7510RegexCImpl17appendReplacementEPNS_17RegularExpressionEPKDsiPPDsPiP10UErrorCode(ptr noundef nonnull %regexp2, ptr noundef nonnull %replacementText, i32 noundef %replacementLength, ptr noundef nonnull %destBuf.addr, ptr noundef nonnull %destCapacity.addr, ptr noundef nonnull %status)
  br label %if.end13

if.end13:                                         ; preds = %return.sink.split.i.i.i, %return.sink.split.i.i.i20, %uregex_reset_75.exit, %if.then11, %uregex_find_75.exit
  %len.0 = phi i32 [ %call.i, %if.then11 ], [ 0, %uregex_find_75.exit ], [ 0, %uregex_reset_75.exit ], [ 0, %return.sink.split.i.i.i20 ], [ 0, %return.sink.split.i.i.i ]
  %call.i30 = call noundef i32 @_ZN6icu_7510RegexCImpl10appendTailEPNS_17RegularExpressionEPPDsPiP10UErrorCode(ptr noundef nonnull %regexp2, ptr noundef nonnull %destBuf.addr, ptr noundef nonnull %destCapacity.addr, ptr noundef nonnull %status)
  %add = add nsw i32 %call.i30, %len.0
  br label %return

return:                                           ; preds = %return.sink.split.i, %entry, %if.end13, %if.then8
  %retval.0 = phi i32 [ 0, %if.then8 ], [ %add, %if.end13 ], [ 0, %entry ], [ 0, %return.sink.split.i ]
  ret i32 %retval.0
}